; Function Attrs: mustprogress uwtable
define internal void @_ZNK6google8protobuf8compiler3cpp12_GLOBAL__N_114SingularString29GenerateMemberCopyConstructorEPNS0_2io7PrinterE(ptr nocapture noundef nonnull readonly align 8 dereferenceable(104) %this, ptr noundef %p) unnamed_addr #3 align 2 personality ptr @__gxx_personality_v0 {
entry:
  %is_inlined_.i = getelementptr inbounds i8, ptr %this, i64 72
  %0 = load i8, ptr %is_inlined_.i, align 8
  %1 = and i8 %0, 1
  %tobool.i.not = icmp eq i8 %1, 0
  br i1 %tobool.i.not, label %lor.lhs.false, label %if.then

lor.lhs.false:                                    ; preds = %entry
  %2 = getelementptr inbounds i8, ptr %this, i64 88
  %this.val = load ptr, ptr %2, align 8
  %3 = getelementptr i8, ptr %this.val, i64 80
  %this.val.val = load ptr, ptr %3, align 8
  %call2.i = tail call noundef zeroext i1 @_ZNKSt7__cxx1112basic_stringIcSt11char_traitsIcESaIcEE5emptyEv(ptr noundef nonnull align 8 dereferenceable(32) %this.val.val) #27
  br i1 %call2.i, label %if.then, label %if.else

if.then:                                          ; preds = %lor.lhs.false, %entry
  tail call void @_ZN6google8protobuf2io7Printer4EmitEN4absl12lts_202308024SpanIKNS2_3SubEEESt17basic_string_viewIcSt11char_traitsIcEENS2_14SourceLocationE(ptr noundef nonnull align 8 dereferenceable(256) %p, ptr null, i64 0, i64 28, ptr nonnull @.str.110)
  br label %if.end

if.else:                                          ; preds = %lor.lhs.false
  tail call void @_ZN6google8protobuf2io7Printer4EmitEN4absl12lts_202308024SpanIKNS2_3SubEEESt17basic_string_viewIcSt11char_traitsIcEENS2_14SourceLocationE(ptr noundef nonnull align 8 dereferenceable(256) %p, ptr null, i64 0, i64 53, ptr nonnull @.str.111)
  br label %if.end

if.end:                                           ; preds = %if.else, %if.then
  ret void
}